target datalayout = "e-m:e-p270:32:32-p271:32:32-p272:64:64-i64:64-i128:128-f80:128-n8:16:32:64-S128"
target triple = "x86_64-pc-linux-gnu"

%"class.std::__cxx11::basic_string" = type { %"struct.std::__cxx11::basic_string<char>::_Alloc_hider", i64, %union.anon }
%"struct.std::__cxx11::basic_string<char>::_Alloc_hider" = type { ptr }
%union.anon = type { i64, [8 x i8] }
%"class.pybind11::object" = type { %"class.pybind11::handle" }
%"class.pybind11::handle" = type { ptr }
%"class.pybind11::str" = type { %"class.pybind11::object" }
%"class.std::type_info" = type { ptr, ptr }

@.str.217 = private unnamed_addr constant [4 x i8] c"###\00", align 1
@.str.218 = private unnamed_addr constant [2 x i8] c"@\00", align 1
@.str.230 = private unnamed_addr constant [6 x i8] c"{:#x}\00", align 1
@_ZTIZ37test_submodule_methods_and_attributesRN8pybind117module_EE12DynamicClass = internal constant { ptr, ptr } { ptr getelementptr inbounds (ptr, ptr @_ZTVN10__cxxabiv117__class_type_infoE, i64 2), ptr @_ZTSZ37test_submodule_methods_and_attributesRN8pybind117module_EE12DynamicClass }, align 8

; Function Attrs: mustprogress uwtable
define linkonce_odr hidden void @_ZN8pybind118literalsli2_sEPKcm(ptr dead_on_unwind noalias writable sret(%"class.pybind11::str") align 8 %0, ptr noundef %1, i64 noundef %2) #1 comdat {
  %4 = alloca ptr, align 8
  %5 = alloca ptr, align 8
  %6 = alloca i64, align 8
  store ptr %0, ptr %4, align 8
  store ptr %1, ptr %5, align 8
  store i64 %2, ptr %6, align 8
  %7 = load ptr, ptr %5, align 8
  call void @_ZN8pybind113strC2ImTnNSt9enable_ifIXsr3std11is_integralIT_EE5valueEiE4typeELi0EEEPKcRKS3_(ptr noundef nonnull align 8 dereferenceable(8) %0, ptr noundef %7, ptr noundef nonnull align 8 dereferenceable(8) %6)
  ret void
}

; Function Attrs: mustprogress nounwind uwtable
define linkonce_odr noundef ptr @_ZNKSt9type_info4nameEv(ptr noundef nonnull align 8 dereferenceable(16) %0) #0 comdat align 2 {
  %2 = alloca ptr, align 8
  store ptr %0, ptr %2, align 8
  %3 = load ptr, ptr %2, align 8
  %4 = getelementptr inbounds %"class.std::type_info", ptr %3, i32 0, i32 1
  %5 = load ptr, ptr %4, align 8
  %6 = getelementptr inbounds i8, ptr %5, i64 0
  %7 = load i8, ptr %6, align 1
  %8 = sext i8 %7 to i32
  %9 = icmp eq i32 %8, 42
  br i1 %9, label %10, label %14

10:                                               ; preds = %1
  %11 = getelementptr inbounds %"class.std::type_info", ptr %3, i32 0, i32 1
  %12 = load ptr, ptr %11, align 8
  %13 = getelementptr inbounds i8, ptr %12, i64 1
  br label %17

14:                                               ; preds = %1
  %15 = getelementptr inbounds %"class.std::type_info", ptr %3, i32 0, i32 1
  %16 = load ptr, ptr %15, align 8
  br label %17

17:                                               ; preds = %14, %10
  %18 = phi ptr [ %13, %10 ], [ %16, %14 ]
  ret ptr %18
}

; Function Attrs: mustprogress uwtable
define internal void @_Z11format_ptrsIZ37test_submodule_methods_and_attributesRN8pybind117module_EE12DynamicClassENS0_3strEPT_(ptr dead_on_unwind noalias writable sret(%"class.pybind11::str") align 8 %0, ptr noundef %1) #1 personality ptr @__gxx_personality_v0 {
  %3 = alloca ptr, align 8
  %4 = alloca ptr, align 8
  %5 = alloca %"class.pybind11::str", align 8
  %6 = alloca i64, align 8
  %7 = alloca ptr, align 8
  %8 = alloca i32, align 4
  store ptr %0, ptr %3, align 8
  store ptr %1, ptr %4, align 8
  call void @_ZN8pybind118literalsli2_sEPKcm(ptr dead_on_unwind writable sret(%"class.pybind11::str") align 8 %5, ptr noundef @.str.230, i64 noundef 5)
  %9 = load ptr, ptr %4, align 8
  %10 = ptrtoint ptr %9 to i64
  store i64 %10, ptr %6, align 8
  invoke void @_ZNK8pybind113str6formatIJmEEES0_DpOT_(ptr dead_on_unwind writable sret(%"class.pybind11::str") align 8 %0, ptr noundef nonnull align 8 dereferenceable(8) %5, ptr noundef nonnull align 8 dereferenceable(8) %6)
          to label %11 unwind label %12

11:                                               ; preds = %2
  call void @_ZN8pybind113strD2Ev(ptr noundef nonnull align 8 dereferenceable(8) %5) #16
  ret void

12:                                               ; preds = %2
  %13 = landingpad { ptr, i32 }
          cleanup
  %14 = extractvalue { ptr, i32 } %13, 0
  store ptr %14, ptr %7, align 8
  %15 = extractvalue { ptr, i32 } %13, 1
  store i32 %15, ptr %8, align 4
  call void @_ZN8pybind113strD2Ev(ptr noundef nonnull align 8 dereferenceable(8) %5) #16
  br label %16

16:                                               ; preds = %12
  %17 = load ptr, ptr %7, align 8
  %18 = load i32, ptr %8, align 4
  %19 = insertvalue { ptr, i32 } poison, ptr %17, 0
  %20 = insertvalue { ptr, i32 } %19, i32 %18, 1
  resume { ptr, i32 } %20
}

; Function Attrs: mustprogress uwtable
define internal void @_ZN8pybind11L7type_idIZ37test_submodule_methods_and_attributesRNS_7module_EE12DynamicClassEENSt7__cxx1112basic_stringIcSt11char_traitsIcESaIcEEEv(ptr dead_on_unwind noalias writable sret(%"class.std::__cxx11::basic_string") align 8 %0) #1 {
  %2 = alloca ptr, align 8
  store ptr %0, ptr %2, align 8
  %3 = call noundef ptr @_ZNKSt9type_info4nameEv(ptr noundef nonnull align 8 dereferenceable(16) @_ZTIZ37test_submodule_methods_and_attributesRN8pybind117module_EE12DynamicClass) #16
  call void @_ZN8pybind116detail13clean_type_idB5cxx11EPKc(ptr dead_on_unwind writable sret(%"class.std::__cxx11::basic_string") align 8 %0, ptr noundef %3)
  ret void
}

; Function Attrs: mustprogress uwtable
define internal void @_Z20print_constr_detailsIZ37test_submodule_methods_and_attributesRN8pybind117module_EE12DynamicClassJEEvPT_RKNSt7__cxx1112basic_stringIcSt11char_traitsIcESaIcEEEDpOT0_(ptr noundef %0, ptr noundef nonnull align 8 dereferenceable(32) %1) #1 personality ptr @__gxx_personality_v0 {
  %3 = alloca ptr, align 8
  %4 = alloca ptr, align 8
  %5 = alloca %"class.std::__cxx11::basic_string", align 8
  %6 = alloca %"class.pybind11::str", align 8
  %7 = alloca ptr, align 8
  %8 = alloca i32, align 4
  store ptr %0, ptr %3, align 8
  store ptr %1, ptr %4, align 8
  call void @_ZN8pybind11L7type_idIZ37test_submodule_methods_and_attributesRNS_7module_EE12DynamicClassEENSt7__cxx1112basic_stringIcSt11char_traitsIcESaIcEEEv(ptr dead_on_unwind writable sret(%"class.std::__cxx11::basic_string") align 8 %5)
  %9 = load ptr, ptr %3, align 8
  invoke void @_Z11format_ptrsIZ37test_submodule_methods_and_attributesRN8pybind117module_EE12DynamicClassENS0_3strEPT_(ptr dead_on_unwind writable sret(%"class.pybind11::str") align 8 %6, ptr noundef %9)
          to label %10 unwind label %13

10:                                               ; preds = %2
  %11 = load ptr, ptr %4, align 8
  invoke void @_ZN8pybind115printILNS_19return_value_policyE1EJRA4_KcNSt7__cxx1112basic_stringIcSt11char_traitsIcESaIcEEERA2_S2_NS_3strERKSA_EEEvDpOT0_(ptr noundef nonnull align 1 dereferenceable(4) @.str.217, ptr noundef nonnull align 8 dereferenceable(32) %5, ptr noundef nonnull align 1 dereferenceable(2) @.str.218, ptr noundef nonnull align 8 dereferenceable(8) %6, ptr noundef nonnull align 8 dereferenceable(32) %11)
          to label %12 unwind label %17

12:                                               ; preds = %10
  call void @_ZN8pybind113strD2Ev(ptr noundef nonnull align 8 dereferenceable(8) %6) #16
  call void @_ZNSt7__cxx1112basic_stringIcSt11char_traitsIcESaIcEED1Ev(ptr noundef nonnull align 8 dereferenceable(32) %5) #16
  ret void

13:                                               ; preds = %2
  %14 = landingpad { ptr, i32 }
          cleanup
  %15 = extractvalue { ptr, i32 } %14, 0
  store ptr %15, ptr %7, align 8
  %16 = extractvalue { ptr, i32 } %14, 1
  store i32 %16, ptr %8, align 4
  br label %21

17:                                               ; preds = %10
  %18 = landingpad { ptr, i32 }
          cleanup
  %19 = extractvalue { ptr, i32 } %18, 0
  store ptr %19, ptr %7, align 8
  %20 = extractvalue { ptr, i32 } %18, 1
  store i32 %20, ptr %8, align 4
  call void @_ZN8pybind113strD2Ev(ptr noundef nonnull align 8 dereferenceable(8) %6) #16
  br label %21

21:                                               ; preds = %17, %13
  call void @_ZNSt7__cxx1112basic_stringIcSt11char_traitsIcESaIcEED1Ev(ptr noundef nonnull align 8 dereferenceable(32) %5) #16
  br label %22

22:                                               ; preds = %21
  %23 = load ptr, ptr %7, align 8
  %24 = load i32, ptr %8, align 4
  %25 = insertvalue { ptr, i32 } poison, ptr %23, 0
  %26 = insertvalue { ptr, i32 } %25, i32 %24, 1
  resume { ptr, i32 } %26
}